target datalayout = "e-m:e-p270:32:32-p271:32:32-p272:64:64-i64:64-i128:128-f80:128-n8:16:32:64-S128"
target triple = "x86_64-pc-linux-gnu"

%struct.diff_queue_struct = type { ptr, i32, i32 }
%struct.object_id = type { [32 x i8], i32 }
%struct.stat = type { i64, i64, i64, i32, i32, i32, i32, i64, i64, i64, i64, %struct.timespec, %struct.timespec, %struct.timespec, [3 x i64] }
%struct.timespec = type { i64, i64 }
%struct.diff_filepair = type { ptr, ptr, i16, i8, i8 }
%struct.diff_filespec = type { %struct.object_id, ptr, ptr, ptr, i64, i32, i32, i16, i16, ptr }
%struct.update_callback_data = type { ptr, i32, i32, i32 }

@.str.8 = private unnamed_addr constant [20 x i8] c"unable to stat '%s'\00", align 1
@.str.103 = private unnamed_addr constant [26 x i8] c"unexpected diff status %c\00", align 1
@.str.104 = private unnamed_addr constant [22 x i8] c"updating files failed\00", align 1
@.str.105 = private unnamed_addr constant [13 x i8] c"remove '%s'\0A\00", align 1

; Function Attrs: nounwind uwtable
define dso_local i32 @add_file_to_index(ptr noundef %0, ptr noundef %1, i32 noundef %2) #0 {
  %4 = alloca ptr, align 8
  %5 = alloca ptr, align 8
  %6 = alloca i32, align 4
  %7 = alloca %struct.stat, align 8
  store ptr %0, ptr %4, align 8, !tbaa !4
  store ptr %1, ptr %5, align 8, !tbaa !11
  store i32 %2, ptr %6, align 4, !tbaa !9
  call void @llvm.lifetime.start.p0(i64 144, ptr %7) #12
  %8 = load ptr, ptr %5, align 8, !tbaa !11
  %9 = call i32 @lstat64(ptr noundef %8, ptr noundef %7) #12
  %10 = icmp ne i32 %9, 0
  br i1 %10, label %11, label %14

11:                                               ; preds = %3
  %12 = call ptr @_(ptr noundef @.str.8)
  %13 = load ptr, ptr %5, align 8, !tbaa !11
  call void (ptr, ...) @die_errno(ptr noundef %12, ptr noundef %13) #14
  unreachable

14:                                               ; preds = %3
  %15 = load ptr, ptr %4, align 8, !tbaa !4
  %16 = load ptr, ptr %5, align 8, !tbaa !11
  %17 = load i32, ptr %6, align 4, !tbaa !9
  %18 = call i32 @add_to_index(ptr noundef %15, ptr noundef %16, ptr noundef %7, i32 noundef %17)
  call void @llvm.lifetime.end.p0(i64 144, ptr %7) #12
  ret i32 %18
}

; Function Attrs: nounwind uwtable
define internal i32 @fix_unmerged_status(ptr noundef %0, ptr noundef %1) #0 {
  %3 = alloca i32, align 4
  %4 = alloca ptr, align 8
  %5 = alloca ptr, align 8
  store ptr %0, ptr %4, align 8, !tbaa !183
  store ptr %1, ptr %5, align 8, !tbaa !262
  %6 = load ptr, ptr %4, align 8, !tbaa !183
  %7 = getelementptr inbounds nuw %struct.diff_filepair, ptr %6, i32 0, i32 3
  %8 = load i8, ptr %7, align 2, !tbaa !265
  %9 = sext i8 %8 to i32
  %10 = icmp ne i32 %9, 85
  br i1 %10, label %11, label %16

11:                                               ; preds = %2
  %12 = load ptr, ptr %4, align 8, !tbaa !183
  %13 = getelementptr inbounds nuw %struct.diff_filepair, ptr %12, i32 0, i32 3
  %14 = load i8, ptr %13, align 2, !tbaa !265
  %15 = sext i8 %14 to i32
  store i32 %15, ptr %3, align 4
  br label %31

16:                                               ; preds = %2
  %17 = load ptr, ptr %5, align 8, !tbaa !262
  %18 = getelementptr inbounds nuw %struct.update_callback_data, ptr %17, i32 0, i32 2
  %19 = load i32, ptr %18, align 4, !tbaa !218
  %20 = and i32 %19, 8
  %21 = icmp ne i32 %20, 0
  br i1 %21, label %30, label %22

22:                                               ; preds = %16
  %23 = load ptr, ptr %4, align 8, !tbaa !183
  %24 = getelementptr inbounds nuw %struct.diff_filepair, ptr %23, i32 0, i32 1
  %25 = load ptr, ptr %24, align 8, !tbaa !185
  %26 = getelementptr inbounds nuw %struct.diff_filespec, ptr %25, i32 0, i32 7
  %27 = load i16, ptr %26, align 8, !tbaa !319
  %28 = icmp ne i16 %27, 0
  br i1 %28, label %30, label %29

29:                                               ; preds = %22
  store i32 68, ptr %3, align 4
  br label %31

30:                                               ; preds = %22, %16
  store i32 77, ptr %3, align 4
  br label %31

31:                                               ; preds = %30, %29, %11
  %32 = load i32, ptr %3, align 4
  ret i32 %32
}

; Function Attrs: nounwind uwtable
define internal void @update_callback(ptr noundef %0, ptr noundef %1, ptr noundef %2) #0 {
  %4 = alloca ptr, align 8
  %5 = alloca ptr, align 8
  %6 = alloca ptr, align 8
  %7 = alloca i32, align 4
  %8 = alloca ptr, align 8
  %9 = alloca ptr, align 8
  %10 = alloca ptr, align 8
  %11 = alloca i32, align 4
  store ptr %0, ptr %4, align 8, !tbaa !258
  store ptr %1, ptr %5, align 8, !tbaa !260
  store ptr %2, ptr %6, align 8, !tbaa !64
  call void @llvm.lifetime.start.p0(i64 4, ptr %7) #12
  call void @llvm.lifetime.start.p0(i64 8, ptr %8) #12
  %12 = load ptr, ptr %6, align 8, !tbaa !64
  store ptr %12, ptr %8, align 8, !tbaa !262
  store i32 0, ptr %7, align 4, !tbaa !9
  br label %13

13:                                               ; preds = %112, %3
  %14 = load i32, ptr %7, align 4, !tbaa !9
  %15 = load ptr, ptr %4, align 8, !tbaa !258
  %16 = getelementptr inbounds nuw %struct.diff_queue_struct, ptr %15, i32 0, i32 2
  %17 = load i32, ptr %16, align 4, !tbaa !179
  %18 = icmp slt i32 %14, %17
  br i1 %18, label %19, label %115

19:                                               ; preds = %13
  call void @llvm.lifetime.start.p0(i64 8, ptr %9) #12
  %20 = load ptr, ptr %4, align 8, !tbaa !258
  %21 = getelementptr inbounds nuw %struct.diff_queue_struct, ptr %20, i32 0, i32 0
  %22 = load ptr, ptr %21, align 8, !tbaa !182
  %23 = load i32, ptr %7, align 4, !tbaa !9
  %24 = sext i32 %23 to i64
  %25 = getelementptr inbounds ptr, ptr %22, i64 %24
  %26 = load ptr, ptr %25, align 8, !tbaa !183
  store ptr %26, ptr %9, align 8, !tbaa !183
  call void @llvm.lifetime.start.p0(i64 8, ptr %10) #12
  %27 = load ptr, ptr %9, align 8, !tbaa !183
  %28 = getelementptr inbounds nuw %struct.diff_filepair, ptr %27, i32 0, i32 0
  %29 = load ptr, ptr %28, align 8, !tbaa !264
  %30 = getelementptr inbounds nuw %struct.diff_filespec, ptr %29, i32 0, i32 1
  %31 = load ptr, ptr %30, align 8, !tbaa !189
  store ptr %31, ptr %10, align 8, !tbaa !11
  %32 = load ptr, ptr %8, align 8, !tbaa !262
  %33 = getelementptr inbounds nuw %struct.update_callback_data, ptr %32, i32 0, i32 1
  %34 = load i32, ptr %33, align 8, !tbaa !217
  %35 = icmp ne i32 %34, 0
  br i1 %35, label %44, label %36

36:                                               ; preds = %19
  %37 = load ptr, ptr %10, align 8, !tbaa !11
  %38 = load ptr, ptr %8, align 8, !tbaa !262
  %39 = getelementptr inbounds nuw %struct.update_callback_data, ptr %38, i32 0, i32 0
  %40 = load ptr, ptr %39, align 8, !tbaa !215
  %41 = call i32 @path_in_sparse_checkout(ptr noundef %37, ptr noundef %40)
  %42 = icmp ne i32 %41, 0
  br i1 %42, label %44, label %43

43:                                               ; preds = %36
  store i32 4, ptr %11, align 4
  br label %109

44:                                               ; preds = %36, %19
  %45 = load ptr, ptr %9, align 8, !tbaa !183
  %46 = load ptr, ptr %8, align 8, !tbaa !262
  %47 = call i32 @fix_unmerged_status(ptr noundef %45, ptr noundef %46)
  switch i32 %47, label %48 [
    i32 77, label %54
    i32 84, label %54
    i32 68, label %78
  ]

48:                                               ; preds = %44
  %49 = call ptr @_(ptr noundef @.str.103)
  %50 = load ptr, ptr %9, align 8, !tbaa !183
  %51 = getelementptr inbounds nuw %struct.diff_filepair, ptr %50, i32 0, i32 3
  %52 = load i8, ptr %51, align 2, !tbaa !265
  %53 = sext i8 %52 to i32
  call void (ptr, ...) @die(ptr noundef %49, i32 noundef %53) #14
  unreachable

54:                                               ; preds = %44, %44
  %55 = load ptr, ptr %8, align 8, !tbaa !262
  %56 = getelementptr inbounds nuw %struct.update_callback_data, ptr %55, i32 0, i32 0
  %57 = load ptr, ptr %56, align 8, !tbaa !215
  %58 = load ptr, ptr %10, align 8, !tbaa !11
  %59 = load ptr, ptr %8, align 8, !tbaa !262
  %60 = getelementptr inbounds nuw %struct.update_callback_data, ptr %59, i32 0, i32 2
  %61 = load i32, ptr %60, align 4, !tbaa !218
  %62 = call i32 @add_file_to_index(ptr noundef %57, ptr noundef %58, i32 noundef %61)
  %63 = icmp ne i32 %62, 0
  br i1 %63, label %64, label %77

64:                                               ; preds = %54
  %65 = load ptr, ptr %8, align 8, !tbaa !262
  %66 = getelementptr inbounds nuw %struct.update_callback_data, ptr %65, i32 0, i32 2
  %67 = load i32, ptr %66, align 4, !tbaa !218
  %68 = and i32 %67, 4
  %69 = icmp ne i32 %68, 0
  br i1 %69, label %72, label %70

70:                                               ; preds = %64
  %71 = call ptr @_(ptr noundef @.str.104)
  call void (ptr, ...) @die(ptr noundef %71) #14
  unreachable

72:                                               ; preds = %64
  %73 = load ptr, ptr %8, align 8, !tbaa !262
  %74 = getelementptr inbounds nuw %struct.update_callback_data, ptr %73, i32 0, i32 3
  %75 = load i32, ptr %74, align 8, !tbaa !257
  %76 = add nsw i32 %75, 1
  store i32 %76, ptr %74, align 8, !tbaa !257
  br label %77

77:                                               ; preds = %72, %54
  br label %108

78:                                               ; preds = %44
  %79 = load ptr, ptr %8, align 8, !tbaa !262
  %80 = getelementptr inbounds nuw %struct.update_callback_data, ptr %79, i32 0, i32 2
  %81 = load i32, ptr %80, align 4, !tbaa !218
  %82 = and i32 %81, 8
  %83 = icmp ne i32 %82, 0
  br i1 %83, label %84, label %85

84:                                               ; preds = %78
  br label %108

85:                                               ; preds = %78
  %86 = load ptr, ptr %8, align 8, !tbaa !262
  %87 = getelementptr inbounds nuw %struct.update_callback_data, ptr %86, i32 0, i32 2
  %88 = load i32, ptr %87, align 4, !tbaa !218
  %89 = and i32 %88, 2
  %90 = icmp ne i32 %89, 0
  br i1 %90, label %97, label %91

91:                                               ; preds = %85
  %92 = load ptr, ptr %8, align 8, !tbaa !262
  %93 = getelementptr inbounds nuw %struct.update_callback_data, ptr %92, i32 0, i32 0
  %94 = load ptr, ptr %93, align 8, !tbaa !215
  %95 = load ptr, ptr %10, align 8, !tbaa !11
  %96 = call i32 @remove_file_from_index(ptr noundef %94, ptr noundef %95)
  br label %97

97:                                               ; preds = %91, %85
  %98 = load ptr, ptr %8, align 8, !tbaa !262
  %99 = getelementptr inbounds nuw %struct.update_callback_data, ptr %98, i32 0, i32 2
  %100 = load i32, ptr %99, align 4, !tbaa !218
  %101 = and i32 %100, 3
  %102 = icmp ne i32 %101, 0
  br i1 %102, label %103, label %107

103:                                              ; preds = %97
  %104 = call ptr @_(ptr noundef @.str.105)
  %105 = load ptr, ptr %10, align 8, !tbaa !11
  %106 = call i32 (ptr, ...) @printf(ptr noundef %104, ptr noundef %105)
  br label %107

107:                                              ; preds = %103, %97
  br label %108

108:                                              ; preds = %107, %84, %77
  store i32 0, ptr %11, align 4
  br label %109

109:                                              ; preds = %108, %43
  call void @llvm.lifetime.end.p0(i64 8, ptr %10) #12
  call void @llvm.lifetime.end.p0(i64 8, ptr %9) #12
  %110 = load i32, ptr %11, align 4
  switch i32 %110, label %116 [
    i32 0, label %111
    i32 4, label %112
  ]

111:                                              ; preds = %109
  br label %112

112:                                              ; preds = %111, %109
  %113 = load i32, ptr %7, align 4, !tbaa !9
  %114 = add nsw i32 %113, 1
  store i32 %114, ptr %7, align 4, !tbaa !9
  br label %13, !llvm.loop !266

115:                                              ; preds = %13
  call void @llvm.lifetime.end.p0(i64 8, ptr %8) #12
  call void @llvm.lifetime.end.p0(i64 4, ptr %7) #12
  ret void

116:                                              ; preds = %109
  unreachable
}