; Function Attrs: nounwind uwtable
define internal void @update_callback(ptr noundef readonly captures(none) %0, ptr readnone captures(none) %1, ptr noundef captures(none) %2) #0 {
  %4 = alloca %struct.stat, align 8
  %5 = getelementptr inbounds nuw i8, ptr %0, i64 12
  %6 = load i32, ptr %5, align 4, !tbaa !226
  %7 = icmp sgt i32 %6, 0
  br i1 %7, label %.lr.ph, label %._crit_edge

.lr.ph:                                           ; preds = %3
  %8 = getelementptr inbounds nuw i8, ptr %2, i64 8
  %9 = getelementptr inbounds nuw i8, ptr %2, i64 12
  %10 = getelementptr inbounds nuw i8, ptr %2, i64 16
  br label %11

11:                                               ; preds = %.lr.ph, %67
  %indvars.iv = phi i64 [ 0, %.lr.ph ], [ %indvars.iv.next, %67 ]
  %12 = load ptr, ptr %0, align 8, !tbaa !157
  %13 = getelementptr inbounds nuw ptr, ptr %12, i64 %indvars.iv
  %14 = load ptr, ptr %13, align 8, !tbaa !160
  %15 = load ptr, ptr %14, align 8, !tbaa !227
  %16 = getelementptr inbounds nuw i8, ptr %15, i64 40
  %17 = load ptr, ptr %16, align 8, !tbaa !166
  %18 = load i32, ptr %8, align 8, !tbaa !184
  %.not = icmp eq i32 %18, 0
  br i1 %.not, label %19, label %22

19:                                               ; preds = %11
  %20 = load ptr, ptr %2, align 8, !tbaa !182
  %21 = call i32 @path_in_sparse_checkout(ptr noundef %17, ptr noundef %20) #30
  %.not23 = icmp eq i32 %21, 0
  br i1 %.not23, label %67, label %22

22:                                               ; preds = %19, %11
  %23 = getelementptr inbounds nuw i8, ptr %14, i64 18
  %24 = load i8, ptr %23, align 2, !tbaa !228
  switch i8 %24, label %33 [
    i8 85, label %25
    i8 77, label %fix_unmerged_status.exit.thread
    i8 84, label %fix_unmerged_status.exit.thread
    i8 68, label %.fix_unmerged_status.exit.thread32_crit_edge
  ]

.fix_unmerged_status.exit.thread32_crit_edge:     ; preds = %22
  %.pre = load i32, ptr %9, align 4, !tbaa !185
  br label %fix_unmerged_status.exit.thread32

25:                                               ; preds = %22
  %26 = load i32, ptr %9, align 4, !tbaa !185
  %27 = and i32 %26, 8
  %.not5.i = icmp eq i32 %27, 0
  br i1 %.not5.i, label %28, label %fix_unmerged_status.exit.thread

28:                                               ; preds = %25
  %29 = getelementptr inbounds nuw i8, ptr %14, i64 8
  %30 = load ptr, ptr %29, align 8, !tbaa !162
  %31 = getelementptr inbounds nuw i8, ptr %30, i64 80
  %32 = load i16, ptr %31, align 8, !tbaa !229
  %.not6.i = icmp eq i16 %32, 0
  br i1 %.not6.i, label %fix_unmerged_status.exit.thread32, label %fix_unmerged_status.exit.thread

33:                                               ; preds = %22
  %34 = getelementptr inbounds nuw i8, ptr %14, i64 18
  %35 = call fastcc ptr @_(ptr noundef nonnull @.str.103)
  %36 = load i8, ptr %34, align 2, !tbaa !228
  %37 = sext i8 %36 to i32
  call void (ptr, ...) @die(ptr noundef %35, i32 noundef %37) #31
  unreachable

fix_unmerged_status.exit.thread:                  ; preds = %22, %22, %28, %25
  %38 = load ptr, ptr %2, align 8, !tbaa !182
  %39 = load i32, ptr %9, align 4, !tbaa !185
  call void @llvm.lifetime.start.p0(i64 144, ptr nonnull %4) #30
  %40 = call i32 @lstat64(ptr noundef %17, ptr noundef nonnull %4) #30
  %.not.i29 = icmp eq i32 %40, 0
  br i1 %.not.i29, label %add_file_to_index.exit, label %41

41:                                               ; preds = %fix_unmerged_status.exit.thread
  %42 = call fastcc ptr @_(ptr noundef nonnull @.str.8)
  call void (ptr, ...) @die_errno(ptr noundef %42, ptr noundef %17) #31
  unreachable

add_file_to_index.exit:                           ; preds = %fix_unmerged_status.exit.thread
  %43 = call range(i32 -1, 1) i32 @add_to_index(ptr noundef %38, ptr noundef %17, ptr noundef nonnull %4, i32 noundef %39)
  call void @llvm.lifetime.end.p0(i64 144, ptr nonnull %4) #30
  %.not27 = icmp eq i32 %43, 0
  br i1 %.not27, label %67, label %44

44:                                               ; preds = %add_file_to_index.exit
  %45 = load i32, ptr %9, align 4, !tbaa !185
  %46 = and i32 %45, 4
  %.not28 = icmp eq i32 %46, 0
  br i1 %.not28, label %47, label %49

47:                                               ; preds = %44
  %48 = call fastcc ptr @_(ptr noundef nonnull @.str.104)
  call void (ptr, ...) @die(ptr noundef %48) #31
  unreachable

49:                                               ; preds = %44
  %50 = load i32, ptr %10, align 8, !tbaa !225
  %51 = add nsw i32 %50, 1
  store i32 %51, ptr %10, align 8, !tbaa !225
  br label %67

fix_unmerged_status.exit.thread32:                ; preds = %.fix_unmerged_status.exit.thread32_crit_edge, %28
  %52 = phi i32 [ %.pre, %.fix_unmerged_status.exit.thread32_crit_edge ], [ %26, %28 ]
  %53 = and i32 %52, 8
  %.not24 = icmp eq i32 %53, 0
  br i1 %.not24, label %54, label %67

54:                                               ; preds = %fix_unmerged_status.exit.thread32
  %55 = and i32 %52, 2
  %.not25 = icmp eq i32 %55, 0
  br i1 %.not25, label %56, label %59

56:                                               ; preds = %54
  %57 = load ptr, ptr %2, align 8, !tbaa !182
  %58 = call i32 @remove_file_from_index(ptr noundef %57, ptr noundef %17)
  %.pre48 = load i32, ptr %9, align 4, !tbaa !185
  br label %59

59:                                               ; preds = %56, %54
  %60 = phi i32 [ %.pre48, %56 ], [ %52, %54 ]
  %61 = and i32 %60, 3
  %.not26 = icmp eq i32 %61, 0
  br i1 %.not26, label %67, label %62

62:                                               ; preds = %59
  %63 = load i32, ptr @git_gettext_enabled, align 4, !tbaa !32
  %.not4.i = icmp eq i32 %63, 0
  br i1 %.not4.i, label %_.exit, label %64

64:                                               ; preds = %62
  %65 = call ptr @dcgettext(ptr noundef null, ptr noundef nonnull @.str.105, i32 noundef 5) #30
  br label %_.exit

_.exit:                                           ; preds = %62, %64
  %.0.i30 = phi ptr [ %65, %64 ], [ @.str.105, %62 ]
  %66 = call i32 (ptr, ...) @printf(ptr noundef nonnull dereferenceable(1) %.0.i30, ptr noundef %17)
  br label %67

67:                                               ; preds = %49, %add_file_to_index.exit, %fix_unmerged_status.exit.thread32, %_.exit, %59, %19
  %indvars.iv.next = add nuw nsw i64 %indvars.iv, 1
  %68 = load i32, ptr %5, align 4, !tbaa !226
  %69 = sext i32 %68 to i64
  %70 = icmp slt i64 %indvars.iv.next, %69
  br i1 %70, label %11, label %._crit_edge, !llvm.loop !230

._crit_edge:                                      ; preds = %67, %3
  ret void
}